target datalayout = "e-m:e-p270:32:32-p271:32:32-p272:64:64-i64:64-i128:128-f80:128-n8:16:32:64-S128"
target triple = "x86_64-pc-linux-gnu"

%"class.grpc_core::Timestamp" = type { i64 }
%struct.grpc_slice = type { ptr, %"union.grpc_slice::grpc_slice_data" }
%"union.grpc_slice::grpc_slice_data" = type { %"struct.grpc_slice::grpc_slice_data::grpc_slice_refcounted", [8 x i8] }
%"struct.grpc_slice::grpc_slice_data::grpc_slice_refcounted" = type { i64, ptr }
%"class.grpc_core::channelz::ChannelTrace::TraceEvent" = type { %struct.gpr_timespec, i32, %struct.grpc_slice, i64, %"class.grpc_core::RefCountedPtr", ptr }
%struct.gpr_timespec = type { i64, i32, i32 }
%"class.grpc_core::RefCountedPtr" = type { ptr }

@_ZN9grpc_core9Timestamp25thread_local_time_source_E = external thread_local global ptr, align 8

; Function Attrs: uwtable
define linkonce_odr hidden noundef ptr @_ZTWN9grpc_core9Timestamp25thread_local_time_source_E() #15 comdat {
  %1 = icmp ne ptr @_ZTHN9grpc_core9Timestamp25thread_local_time_source_E, null
  br i1 %1, label %2, label %3

2:                                                ; preds = %0
  call void @_ZTHN9grpc_core9Timestamp25thread_local_time_source_E()
  br label %3

3:                                                ; preds = %2, %0
  %4 = call align 8 ptr @llvm.threadlocal.address.p0(ptr align 8 @_ZN9grpc_core9Timestamp25thread_local_time_source_E)
  ret ptr %4
}

; Function Attrs: mustprogress nounwind uwtable
define linkonce_odr void @_ZN9grpc_core13RefCountedPtrINS_8channelz8BaseNodeEEC2EOS3_(ptr noundef nonnull align 8 dereferenceable(8) %0, ptr noundef nonnull align 8 dereferenceable(8) %1) unnamed_addr #7 comdat align 2 {
  %3 = alloca ptr, align 8
  %4 = alloca ptr, align 8
  store ptr %0, ptr %3, align 8, !tbaa !12
  store ptr %1, ptr %4, align 8, !tbaa !12
  %5 = load ptr, ptr %3, align 8
  %6 = getelementptr inbounds nuw %"class.grpc_core::RefCountedPtr", ptr %5, i32 0, i32 0
  store ptr null, ptr %6, align 8, !tbaa !33
  %7 = load ptr, ptr %4, align 8, !tbaa !12
  %8 = getelementptr inbounds nuw %"class.grpc_core::RefCountedPtr", ptr %7, i32 0, i32 0
  %9 = load ptr, ptr %8, align 8, !tbaa !33
  %10 = getelementptr inbounds nuw %"class.grpc_core::RefCountedPtr", ptr %5, i32 0, i32 0
  store ptr %9, ptr %10, align 8, !tbaa !33
  %11 = load ptr, ptr %4, align 8, !tbaa !12
  %12 = getelementptr inbounds nuw %"class.grpc_core::RefCountedPtr", ptr %11, i32 0, i32 0
  store ptr null, ptr %12, align 8, !tbaa !33
  ret void
}

; Function Attrs: mustprogress uwtable
define linkonce_odr i64 @_ZN9grpc_core9Timestamp3NowEv() #4 comdat align 2 {
  %1 = alloca %"class.grpc_core::Timestamp", align 8
  %2 = call ptr @_ZTWN9grpc_core9Timestamp25thread_local_time_source_E()
  %3 = load ptr, ptr %2, align 8, !tbaa !29
  %4 = load ptr, ptr %3, align 8, !tbaa !31
  %5 = getelementptr inbounds ptr, ptr %4, i64 0
  %6 = load ptr, ptr %5, align 8
  %7 = call i64 %6(ptr noundef nonnull align 8 dereferenceable(8) %3)
  %8 = getelementptr inbounds nuw %"class.grpc_core::Timestamp", ptr %1, i32 0, i32 0
  store i64 %7, ptr %8, align 8
  %9 = getelementptr inbounds nuw %"class.grpc_core::Timestamp", ptr %1, i32 0, i32 0
  %10 = load i64, ptr %9, align 8
  ret i64 %10
}

; Function Attrs: mustprogress uwtable
define void @_ZN9grpc_core8channelz12ChannelTrace10TraceEventC2ENS1_8SeverityERK10grpc_sliceNS_13RefCountedPtrINS0_8BaseNodeEEE(ptr noundef nonnull align 8 dereferenceable(80) %0, i32 noundef %1, ptr noundef nonnull align 8 dereferenceable(32) %2, ptr noundef %3) unnamed_addr #4 align 2 {
  %5 = alloca ptr, align 8
  %6 = alloca i32, align 4
  %7 = alloca ptr, align 8
  %8 = alloca ptr, align 8
  %9 = alloca %"class.grpc_core::Timestamp", align 8
  %10 = alloca %struct.grpc_slice, align 8
  store ptr %0, ptr %5, align 8, !tbaa !3
  store i32 %1, ptr %6, align 4, !tbaa !8
  store ptr %2, ptr %7, align 8, !tbaa !10
  store ptr %3, ptr %8, align 8, !tbaa !12
  %11 = load ptr, ptr %5, align 8
  call void @llvm.lifetime.start.p0(i64 8, ptr %9) #3
  %12 = call i64 @_ZN9grpc_core9Timestamp3NowEv()
  %13 = getelementptr inbounds nuw %"class.grpc_core::Timestamp", ptr %9, i32 0, i32 0
  store i64 %12, ptr %13, align 8
  %14 = call { i64, i64 } @_ZNK9grpc_core9Timestamp11as_timespecE14gpr_clock_type(ptr noundef nonnull align 8 dereferenceable(8) %9, i32 noundef 1)
  %15 = getelementptr inbounds nuw { i64, i64 }, ptr %11, i32 0, i32 0
  %16 = extractvalue { i64, i64 } %14, 0
  store i64 %16, ptr %15, align 8
  %17 = getelementptr inbounds nuw { i64, i64 }, ptr %11, i32 0, i32 1
  %18 = extractvalue { i64, i64 } %14, 1
  store i64 %18, ptr %17, align 8
  call void @llvm.lifetime.end.p0(i64 8, ptr %9) #3
  %19 = getelementptr inbounds nuw %"class.grpc_core::channelz::ChannelTrace::TraceEvent", ptr %11, i32 0, i32 1
  %20 = load i32, ptr %6, align 4, !tbaa !8
  store i32 %20, ptr %19, align 8, !tbaa !14
  %21 = getelementptr inbounds nuw %"class.grpc_core::channelz::ChannelTrace::TraceEvent", ptr %11, i32 0, i32 2
  %22 = load ptr, ptr %7, align 8, !tbaa !10
  call void @llvm.memcpy.p0.p0.i64(ptr align 8 %21, ptr align 8 %22, i64 32, i1 false), !tbaa.struct !24
  %23 = getelementptr inbounds nuw %"class.grpc_core::channelz::ChannelTrace::TraceEvent", ptr %11, i32 0, i32 3
  %24 = load ptr, ptr %7, align 8, !tbaa !10
  call void @llvm.memcpy.p0.p0.i64(ptr align 8 %10, ptr align 8 %24, i64 32, i1 false), !tbaa.struct !24
  %25 = call noundef i64 @_Z23grpc_slice_memory_usage10grpc_slice(ptr noundef byval(%struct.grpc_slice) align 8 %10)
  %26 = add i64 80, %25
  store i64 %26, ptr %23, align 8, !tbaa !27
  %27 = getelementptr inbounds nuw %"class.grpc_core::channelz::ChannelTrace::TraceEvent", ptr %11, i32 0, i32 4
  call void @_ZN9grpc_core13RefCountedPtrINS_8channelz8BaseNodeEEC2EOS3_(ptr noundef nonnull align 8 dereferenceable(8) %27, ptr noundef nonnull align 8 dereferenceable(8) %3) #3
  %28 = getelementptr inbounds nuw %"class.grpc_core::channelz::ChannelTrace::TraceEvent", ptr %11, i32 0, i32 5
  store ptr null, ptr %28, align 8, !tbaa !28
  ret void
}