; Function Attrs: uwtable
define void @_ZN9grpc_core8channelz12ChannelTrace10TraceEventC2ENS1_8SeverityERK10grpc_sliceNS_13RefCountedPtrINS0_8BaseNodeEEE(ptr noundef nonnull writeonly align 8 captures(none) dereferenceable(80) initializes((0, 20), (24, 80)) %0, i32 noundef %1, ptr noundef nonnull readonly align 8 captures(none) dereferenceable(32) %2, ptr noundef captures(none) %3) unnamed_addr #3 align 2 {
  %5 = alloca %"class.grpc_core::Timestamp", align 8
  call void @llvm.lifetime.start.p0(i64 8, ptr nonnull %5) #23
  %.not.i.i = icmp eq ptr @_ZTHN9grpc_core9Timestamp25thread_local_time_source_E, null
  br i1 %.not.i.i, label %_ZN9grpc_core9Timestamp3NowEv.exit, label %6

6:                                                ; preds = %4
  tail call void @_ZTHN9grpc_core9Timestamp25thread_local_time_source_E()
  br label %_ZN9grpc_core9Timestamp3NowEv.exit

_ZN9grpc_core9Timestamp3NowEv.exit:               ; preds = %4, %6
  %7 = tail call noundef align 8 ptr @llvm.threadlocal.address.p0(ptr align 8 @_ZN9grpc_core9Timestamp25thread_local_time_source_E)
  %8 = load ptr, ptr %7, align 8, !tbaa !3
  %9 = load ptr, ptr %8, align 8, !tbaa !8
  %10 = load ptr, ptr %9, align 8
  %11 = tail call i64 %10(ptr noundef nonnull align 8 dereferenceable(8) %8)
  store i64 %11, ptr %5, align 8
  %12 = call { i64, i64 } @_ZNK9grpc_core9Timestamp11as_timespecE14gpr_clock_type(ptr noundef nonnull align 8 dereferenceable(8) %5, i32 noundef 1)
  %13 = extractvalue { i64, i64 } %12, 0
  store i64 %13, ptr %0, align 8
  %14 = getelementptr inbounds nuw i8, ptr %0, i64 8
  %15 = extractvalue { i64, i64 } %12, 1
  store i64 %15, ptr %14, align 8
  call void @llvm.lifetime.end.p0(i64 8, ptr nonnull %5) #23
  %16 = getelementptr inbounds nuw i8, ptr %0, i64 16
  store i32 %1, ptr %16, align 8, !tbaa !10
  %17 = getelementptr inbounds nuw i8, ptr %0, i64 24
  call void @llvm.memcpy.p0.p0.i64(ptr noundef nonnull align 8 dereferenceable(32) %17, ptr noundef nonnull align 8 dereferenceable(32) %2, i64 32, i1 false), !tbaa.struct !22
  %18 = getelementptr inbounds nuw i8, ptr %0, i64 56
  %19 = call noundef i64 @_Z23grpc_slice_memory_usage10grpc_slice(ptr noundef nonnull byval(%struct.grpc_slice) align 8 %2)
  %20 = add i64 %19, 80
  store i64 %20, ptr %18, align 8, !tbaa !25
  %21 = getelementptr inbounds nuw i8, ptr %0, i64 64
  store ptr null, ptr %21, align 8, !tbaa !26
  %22 = load ptr, ptr %3, align 8, !tbaa !26
  store ptr %22, ptr %21, align 8, !tbaa !26
  store ptr null, ptr %3, align 8, !tbaa !26
  %23 = getelementptr inbounds nuw i8, ptr %0, i64 72
  store ptr null, ptr %23, align 8, !tbaa !27
  ret void
}